; Function Attrs: nounwind uwtable
define dso_local ptr @list_remove(ptr noundef readonly captures(none) %0) #0 {
  %2 = getelementptr inbounds nuw i8, ptr %0, i64 8
  %3 = load ptr, ptr %2, align 8
  %4 = getelementptr inbounds nuw i8, ptr %3, i64 40
  %5 = tail call i32 @pthread_rwlock_wrlock(ptr noundef nonnull %4) #9
  %.not = icmp eq i32 %5, 0
  br i1 %.not, label %8, label %6

6:                                                ; preds = %1
  %7 = tail call ptr @__errno_location() #10
  store i32 %5, ptr %7, align 4
  tail call void (ptr, ...) @fatal_abort(ptr noundef nonnull @.str.2, ptr noundef nonnull @__func__.list_remove) #11
  unreachable

8:                                                ; preds = %1
  %9 = getelementptr inbounds nuw i8, ptr %0, i64 24
  %10 = load ptr, ptr %9, align 8
  %11 = load ptr, ptr %10, align 8
  %12 = getelementptr inbounds nuw i8, ptr %0, i64 16
  %13 = load ptr, ptr %12, align 8
  %.not12 = icmp eq ptr %11, %13
  %.pre14 = load ptr, ptr %2, align 8
  %.not.i = icmp eq ptr %11, null
  %or.cond = or i1 %.not12, %.not.i
  br i1 %or.cond, label %_list_node_destroy.exit, label %14

14:                                               ; preds = %8
  %15 = load ptr, ptr %11, align 8
  %16 = getelementptr inbounds nuw i8, ptr %11, i64 8
  %17 = load ptr, ptr %16, align 8
  store ptr %17, ptr %10, align 8
  %.not28.i = icmp eq ptr %17, null
  br i1 %.not28.i, label %18, label %20

18:                                               ; preds = %14
  %19 = getelementptr inbounds nuw i8, ptr %.pre14, i64 16
  store ptr %10, ptr %19, align 8
  br label %20

20:                                               ; preds = %18, %14
  %21 = getelementptr inbounds nuw i8, ptr %.pre14, i64 4
  %22 = load i32, ptr %21, align 4
  %23 = add nsw i32 %22, -1
  store i32 %23, ptr %21, align 4
  %24 = getelementptr inbounds nuw i8, ptr %.pre14, i64 24
  %.030.i = load ptr, ptr %24, align 8
  %.not2931.i = icmp eq ptr %.030.i, null
  br i1 %.not2931.i, label %._crit_edge.i, label %.lr.ph.i

.lr.ph.i:                                         ; preds = %20, %36
  %.032.i = phi ptr [ %.0.i, %36 ], [ %.030.i, %20 ]
  %25 = getelementptr inbounds nuw i8, ptr %.032.i, i64 16
  %26 = load ptr, ptr %25, align 8
  %27 = icmp eq ptr %26, %11
  br i1 %27, label %28, label %31

28:                                               ; preds = %.lr.ph.i
  %29 = load ptr, ptr %16, align 8
  store ptr %29, ptr %25, align 8
  %30 = getelementptr inbounds nuw i8, ptr %.032.i, i64 24
  store ptr %10, ptr %30, align 8
  br label %36

31:                                               ; preds = %.lr.ph.i
  %32 = getelementptr inbounds nuw i8, ptr %.032.i, i64 24
  %33 = load ptr, ptr %32, align 8
  %34 = icmp eq ptr %33, %16
  br i1 %34, label %35, label %36

35:                                               ; preds = %31
  store ptr %10, ptr %32, align 8
  br label %36

36:                                               ; preds = %35, %31, %28
  %37 = getelementptr inbounds nuw i8, ptr %.032.i, i64 32
  %.0.i = load ptr, ptr %37, align 8
  %.not29.i = icmp eq ptr %.0.i, null
  br i1 %.not29.i, label %._crit_edge.i, label %.lr.ph.i, !llvm.loop !17

._crit_edge.i:                                    ; preds = %36, %20
  %38 = getelementptr inbounds nuw i8, ptr %.pre14, i64 96
  %39 = load ptr, ptr %38, align 8
  store ptr %39, ptr %16, align 8
  store ptr %11, ptr %38, align 8
  %.pre = load ptr, ptr %2, align 8
  br label %_list_node_destroy.exit

_list_node_destroy.exit:                          ; preds = %._crit_edge.i, %8
  %40 = phi ptr [ %.pre14, %8 ], [ %.pre, %._crit_edge.i ]
  %.0 = phi ptr [ null, %8 ], [ %15, %._crit_edge.i ]
  %41 = getelementptr inbounds nuw i8, ptr %40, i64 40
  %42 = tail call i32 @pthread_rwlock_unlock(ptr noundef nonnull %41) #9
  %.not13 = icmp eq i32 %42, 0
  br i1 %.not13, label %45, label %43

43:                                               ; preds = %_list_node_destroy.exit
  %44 = tail call ptr @__errno_location() #10
  store i32 %42, ptr %44, align 4
  tail call void (ptr, ...) @fatal_abort(ptr noundef nonnull @.str.3, ptr noundef nonnull @__func__.list_remove) #11
  unreachable

45:                                               ; preds = %_list_node_destroy.exit
  ret ptr %.0
}